; ModuleID = 'bench/linux/original/pata_sch.ll'
source_filename = "bench/linux/original/pata_sch.ll"
target datalayout = "e-m:e-p270:32:32-p271:32:32-p272:64:64-i64:64-i128:128-f80:128-n8:16:32:64-S128"
target triple = "x86_64-unknown-linux-gnu"

module asm ".section\09\22.initcall6.init\22, \22a\22\09\09"
module asm "__initcall__kmod_pata_sch__440_167_sch_pci_driver_init6:\09\09\09"
module asm ".long\09sch_pci_driver_init - .\09"
module asm ".previous\09\09\09\09\09"

%struct.module_version_attribute = type { %struct.module_attribute, ptr, ptr }
%struct.module_attribute = type { %struct.attribute, ptr, ptr, ptr, ptr, ptr }
%struct.attribute = type { ptr, i16 }
%struct.pci_driver = type { ptr, ptr, ptr, ptr, ptr, ptr, ptr, ptr, ptr, ptr, ptr, ptr, ptr, %struct.device_driver, %struct.pci_dynids, i8 }
%struct.device_driver = type { ptr, ptr, ptr, ptr, i8, i32, ptr, ptr, ptr, ptr, ptr, ptr, ptr, ptr, ptr, ptr, ptr, ptr, ptr }
%struct.pci_dynids = type { %struct.spinlock, %struct.list_head }
%struct.spinlock = type { %union.anon }
%union.anon = type { %struct.raw_spinlock }
%struct.raw_spinlock = type { %struct.qspinlock }
%struct.qspinlock = type { %union.anon.0 }
%union.anon.0 = type { %struct.atomic_t }
%struct.atomic_t = type { i32 }
%struct.list_head = type { ptr, ptr }
%struct.pci_device_id = type { i32, i32, i32, i32, i32, i32, i64, i32 }
%struct.ata_port_info = type { i64, i64, i32, i32, i32, ptr, ptr }
%struct.scsi_host_template = type { i32, ptr, ptr, ptr, ptr, ptr, ptr, ptr, ptr, ptr, ptr, ptr, ptr, ptr, ptr, ptr, ptr, ptr, ptr, ptr, ptr, ptr, ptr, ptr, ptr, ptr, ptr, ptr, ptr, ptr, ptr, ptr, ptr, ptr, i32, i32, i16, i16, i32, i32, i64, i64, i16, i32, i8, i32, ptr, ptr, i64, i32 }
%struct.ata_port_operations = type { ptr, ptr, ptr, ptr, ptr, ptr, ptr, ptr, ptr, ptr, ptr, ptr, ptr, ptr, ptr, ptr, ptr, ptr, ptr, ptr, ptr, ptr, ptr, ptr, ptr, ptr, ptr, ptr, ptr, ptr, ptr, ptr, ptr, ptr, ptr, ptr, ptr, ptr, ptr, ptr, ptr, ptr, ptr, ptr, ptr, ptr, ptr, ptr, ptr, ptr, ptr, ptr, ptr, ptr, ptr, ptr, ptr, ptr, ptr, ptr }

@__UNIQUE_ID_author435 = internal constant [44 x i8] c"pata_sch.author=Alek Du <alek.du@intel.com>\00", section ".modinfo", align 1
@__UNIQUE_ID_description436 = internal constant [74 x i8] c"pata_sch.description=SCSI low-level driver for Intel SCH PATA controllers\00", section ".modinfo", align 1
@__UNIQUE_ID_file437 = internal constant [35 x i8] c"pata_sch.file=drivers/ata/pata_sch\00", section ".modinfo", align 1
@__UNIQUE_ID_license438 = internal constant [21 x i8] c"pata_sch.license=GPL\00", section ".modinfo", align 1
@__UNIQUE_ID_version439 = internal constant [21 x i8] c"pata_sch.version=0.2\00", section ".modinfo", align 1
@.str = private unnamed_addr constant [8 x i8] c"version\00", align 1
@.str.1 = private unnamed_addr constant [9 x i8] c"pata_sch\00", align 1
@.str.2 = private unnamed_addr constant [4 x i8] c"0.2\00", align 1
@__modver_attr = internal global %struct.module_version_attribute { %struct.module_attribute { %struct.attribute { ptr @.str, i16 292 }, ptr @__modver_version_show, ptr null, ptr null, ptr null, ptr null }, ptr @.str.1, ptr @.str.2 }, section "__modver", align 8
@__UNIQUE_ID___addressable_sch_pci_driver_init441 = internal global ptr @sch_pci_driver_init, section ".discard.addressable", align 8
@sch_pci_driver = internal global %struct.pci_driver { ptr @.str.1, ptr @sch_pci_tbl, ptr @sch_init_one, ptr @ata_pci_remove_one, ptr @ata_pci_device_suspend, ptr @ata_pci_device_resume, ptr null, ptr null, ptr null, ptr null, ptr null, ptr null, ptr null, %struct.device_driver zeroinitializer, %struct.pci_dynids zeroinitializer, i8 0 }, align 8
@__exitcall_sch_pci_driver_exit = internal global ptr @sch_pci_driver_exit, section ".exitcall.exit", align 8
@sch_pci_tbl = internal constant [2 x %struct.pci_device_id] [%struct.pci_device_id { i32 32902, i32 33050, i32 -1, i32 -1, i32 0, i32 0, i64 0, i32 0 }, %struct.pci_device_id zeroinitializer], align 16
@sch_port_info = internal constant %struct.ata_port_info { i64 1, i64 0, i32 31, i32 7, i32 63, ptr @sch_pata_ops, ptr null }, align 8
@sch_init_one.__print_once = internal unnamed_addr global i1 false, align 1
@sch_sht = internal constant %struct.scsi_host_template { i32 0, ptr @ata_scsi_queuecmd, ptr null, ptr null, ptr @.str.1, ptr null, ptr @ata_scsi_ioctl, ptr @ata_scsi_ioctl, ptr null, ptr null, ptr null, ptr null, ptr null, ptr null, ptr null, ptr @ata_scsi_slave_alloc, ptr @ata_scsi_slave_config, ptr @ata_scsi_slave_destroy, ptr null, ptr null, ptr null, ptr null, ptr null, ptr null, ptr null, ptr @ata_scsi_dma_need_drain, ptr @ata_std_bios_param, ptr @ata_scsi_unlock_native_capacity, ptr null, ptr null, ptr null, ptr null, ptr null, ptr @.str.1, i32 1, i32 -1, i16 128, i16 0, i32 65535, i32 0, i64 65535, i64 0, i16 0, i32 1, i8 8, i32 0, ptr null, ptr @ata_common_sdev_groups, i64 0, i32 0 }, align 8
@sch_pata_ops = internal global %struct.ata_port_operations { ptr null, ptr null, ptr null, ptr null, ptr null, ptr null, ptr @ata_cable_unknown, ptr null, ptr @sch_set_piomode, ptr @sch_set_dmamode, ptr null, ptr null, ptr null, ptr null, ptr null, ptr null, ptr null, ptr null, ptr null, ptr null, ptr null, ptr null, ptr null, ptr null, ptr null, ptr null, ptr null, ptr null, ptr null, ptr null, ptr null, ptr null, ptr null, ptr null, ptr null, ptr null, ptr null, ptr null, ptr null, ptr null, ptr null, ptr null, ptr null, ptr null, ptr null, ptr null, ptr null, ptr null, ptr null, ptr null, ptr null, ptr null, ptr null, ptr null, ptr null, ptr null, ptr null, ptr null, ptr null, ptr @ata_bmdma_port_ops }, align 8
@ata_bmdma_port_ops = external dso_local constant %struct.ata_port_operations, align 8
@ata_common_sdev_groups = external dso_local global [0 x ptr], align 8
@llvm.compiler.used = appending global [9 x ptr] [ptr @__UNIQUE_ID___addressable_sch_pci_driver_init441, ptr @__UNIQUE_ID_author435, ptr @__UNIQUE_ID_description436, ptr @__UNIQUE_ID_file437, ptr @__UNIQUE_ID_license438, ptr @__UNIQUE_ID_version439, ptr @__exitcall_sch_pci_driver_exit, ptr @__modver_attr, ptr @sch_pci_driver_exit], section "llvm.metadata"

; Function Attrs: null_pointer_is_valid
declare dso_local i64 @__modver_version_show(ptr noundef, ptr noundef, ptr noundef) #0

; Function Attrs: cold fn_ret_thunk_extern nounwind null_pointer_is_valid optsize
define internal i32 @sch_pci_driver_init() #1 section ".init.text" align 16 {
  %1 = tail call i32 @__pci_register_driver(ptr noundef nonnull @sch_pci_driver, ptr noundef null, ptr noundef nonnull @.str.1) #4
  ret i32 %1
}

; Function Attrs: cold fn_ret_thunk_extern nounwind null_pointer_is_valid optsize
define internal void @sch_pci_driver_exit() #1 section ".exit.text" align 16 {
  tail call void @pci_unregister_driver(ptr noundef nonnull @sch_pci_driver) #4
  ret void
}

; Function Attrs: null_pointer_is_valid
declare dso_local void @pci_unregister_driver(ptr noundef) local_unnamed_addr #0

; Function Attrs: null_pointer_is_valid
declare dso_local i32 @__pci_register_driver(ptr noundef, ptr noundef, ptr noundef) local_unnamed_addr #0

; Function Attrs: fn_ret_thunk_extern nounwind null_pointer_is_valid
define internal i32 @sch_init_one(ptr noundef %0, ptr nocapture readnone %1) #2 align 16 {
  %3 = alloca [2 x ptr], align 16
  call void @llvm.lifetime.start.p0(i64 16, ptr nonnull %3) #4
  store ptr @sch_port_info, ptr %3, align 16
  %4 = getelementptr inbounds i8, ptr %3, i64 8
  store ptr null, ptr %4, align 8
  %5 = load i1, ptr @sch_init_one.__print_once, align 1
  br i1 %5, label %8, label %6

6:                                                ; preds = %2
  store i1 true, ptr @sch_init_one.__print_once, align 1
  %7 = getelementptr inbounds i8, ptr %0, i64 184
  tail call void @ata_print_version(ptr noundef %7, ptr noundef nonnull @.str.2) #4
  br label %8

8:                                                ; preds = %6, %2
  %9 = call i32 @ata_pci_bmdma_init_one(ptr noundef %0, ptr noundef nonnull %3, ptr noundef nonnull @sch_sht, ptr noundef null, i32 noundef 0) #4
  call void @llvm.lifetime.end.p0(i64 16, ptr nonnull %3) #4
  ret i32 %9
}

; Function Attrs: null_pointer_is_valid
declare dso_local void @ata_pci_remove_one(ptr noundef) #0

; Function Attrs: null_pointer_is_valid
declare dso_local i32 @ata_pci_device_suspend(ptr noundef, i32) #0

; Function Attrs: null_pointer_is_valid
declare dso_local i32 @ata_pci_device_resume(ptr noundef) #0

; Function Attrs: mustprogress nocallback nofree nosync nounwind willreturn memory(argmem: readwrite)
declare void @llvm.lifetime.start.p0(i64 immarg, ptr nocapture) #3

; Function Attrs: null_pointer_is_valid
declare dso_local void @ata_print_version(ptr noundef, ptr noundef) local_unnamed_addr #0

; Function Attrs: null_pointer_is_valid
declare dso_local i32 @ata_pci_bmdma_init_one(ptr noundef, ptr noundef, ptr noundef, ptr noundef, i32 noundef) local_unnamed_addr #0

; Function Attrs: mustprogress nocallback nofree nosync nounwind willreturn memory(argmem: readwrite)
declare void @llvm.lifetime.end.p0(i64 immarg, ptr nocapture) #3

; Function Attrs: null_pointer_is_valid
declare dso_local i32 @ata_cable_unknown(ptr noundef) #0

; Function Attrs: fn_ret_thunk_extern nounwind null_pointer_is_valid
define internal void @sch_set_piomode(ptr nocapture noundef readonly %0, ptr nocapture noundef readonly %1) #2 align 16 {
  %3 = alloca i32, align 4
  %4 = getelementptr inbounds i8, ptr %1, i64 816
  %5 = load i8, ptr %4, align 16
  %6 = zext i8 %5 to i32
  %7 = add nsw i32 %6, -8
  %8 = getelementptr inbounds i8, ptr %0, i64 14776
  %9 = load ptr, ptr %8, align 8
  %10 = getelementptr inbounds i8, ptr %9, i64 8
  %11 = load ptr, ptr %10, align 8
  %12 = getelementptr i8, ptr %11, i64 -184
  %13 = getelementptr inbounds i8, ptr %1, i64 8
  %14 = load i32, ptr %13, align 8
  %15 = icmp eq i32 %14, 0
  %16 = select i1 %15, i32 128, i32 132
  call void @llvm.lifetime.start.p0(i64 4, ptr nonnull %3) #4
  store i32 0, ptr %3, align 4, !annotation !5
  %17 = call i32 @pci_read_config_dword(ptr noundef %12, i32 noundef %16, ptr noundef nonnull %3) #4
  %18 = load i32, ptr %3, align 4
  %19 = and i32 %18, -1073741832
  %20 = or i32 %19, %7
  store i32 %20, ptr %3, align 4
  %21 = getelementptr inbounds i8, ptr %1, i64 800
  %22 = load i32, ptr %21, align 32
  %23 = icmp eq i32 %22, 1
  br i1 %23, label %24, label %26

24:                                               ; preds = %2
  %25 = or i32 %20, 1073741824
  store i32 %25, ptr %3, align 4
  br label %26

26:                                               ; preds = %24, %2
  %27 = phi i32 [ %25, %24 ], [ %20, %2 ]
  %28 = call i32 @pci_write_config_dword(ptr noundef %12, i32 noundef %16, i32 noundef %27) #4
  call void @llvm.lifetime.end.p0(i64 4, ptr nonnull %3) #4
  ret void
}

; Function Attrs: fn_ret_thunk_extern nounwind null_pointer_is_valid
define internal void @sch_set_dmamode(ptr nocapture noundef readonly %0, ptr nocapture noundef readonly %1) #2 align 16 {
  %3 = alloca i32, align 4
  %4 = getelementptr inbounds i8, ptr %1, i64 817
  %5 = load i8, ptr %4, align 1
  %6 = zext i8 %5 to i32
  %7 = getelementptr inbounds i8, ptr %0, i64 14776
  %8 = load ptr, ptr %7, align 8
  %9 = getelementptr inbounds i8, ptr %8, i64 8
  %10 = load ptr, ptr %9, align 8
  %11 = getelementptr i8, ptr %10, i64 -184
  %12 = getelementptr inbounds i8, ptr %1, i64 8
  %13 = load i32, ptr %12, align 8
  %14 = icmp eq i32 %13, 0
  %15 = select i1 %14, i32 128, i32 132
  call void @llvm.lifetime.start.p0(i64 4, ptr nonnull %3) #4
  store i32 0, ptr %3, align 4, !annotation !5
  %16 = call i32 @pci_read_config_dword(ptr noundef %11, i32 noundef %15, ptr noundef nonnull %3) #4
  %17 = icmp ugt i8 %5, 63
  %18 = load i32, ptr %3, align 4
  br i1 %17, label %19, label %25

19:                                               ; preds = %2
  %20 = and i32 %18, 2147024895
  %21 = shl nuw nsw i32 %6, 16
  %22 = add nuw i32 %21, 2143289344
  %23 = or i32 %22, %20
  %24 = or i32 %23, -2147483648
  br label %30

25:                                               ; preds = %2
  %26 = and i32 %18, 2147482879
  %27 = shl nuw nsw i32 %6, 8
  %28 = add nsw i32 %27, -8192
  %29 = or i32 %26, %28
  br label %30

30:                                               ; preds = %25, %19
  %31 = phi i32 [ %29, %25 ], [ %24, %19 ]
  store i32 %31, ptr %3, align 4
  %32 = call i32 @pci_write_config_dword(ptr noundef %11, i32 noundef %15, i32 noundef %31) #4
  call void @llvm.lifetime.end.p0(i64 4, ptr nonnull %3) #4
  ret void
}

; Function Attrs: null_pointer_is_valid
declare dso_local i32 @pci_read_config_dword(ptr noundef, i32 noundef, ptr noundef) local_unnamed_addr #0

; Function Attrs: null_pointer_is_valid
declare dso_local i32 @pci_write_config_dword(ptr noundef, i32 noundef, i32 noundef) local_unnamed_addr #0

; Function Attrs: null_pointer_is_valid
declare dso_local i32 @ata_scsi_queuecmd(ptr noundef, ptr noundef) #0

; Function Attrs: null_pointer_is_valid
declare dso_local i32 @ata_scsi_ioctl(ptr noundef, i32 noundef, ptr noundef) #0

; Function Attrs: null_pointer_is_valid
declare dso_local i32 @ata_scsi_slave_alloc(ptr noundef) #0

; Function Attrs: null_pointer_is_valid
declare dso_local i32 @ata_scsi_slave_config(ptr noundef) #0

; Function Attrs: null_pointer_is_valid
declare dso_local void @ata_scsi_slave_destroy(ptr noundef) #0

; Function Attrs: null_pointer_is_valid
declare dso_local zeroext i1 @ata_scsi_dma_need_drain(ptr noundef) #0

; Function Attrs: null_pointer_is_valid
declare dso_local i32 @ata_std_bios_param(ptr noundef, ptr noundef, i64 noundef, ptr noundef) #0

; Function Attrs: null_pointer_is_valid
declare dso_local void @ata_scsi_unlock_native_capacity(ptr noundef) #0


!llvm.module.flags = !{!0, !1, !2, !3, !4}

!0 = !{i32 1, !"wchar_size", i32 2}
!1 = !{i32 8, !"cf-protection-branch", i32 1}
!2 = !{i32 4, !"function_return_thunk_extern", i32 1}
!3 = !{i32 4, !"indirect_branch_cs_prefix", i32 1}
!4 = !{i32 4, !"SkipRaxSetup", i32 1}
!5 = !{!"auto-init"}
